target datalayout = "e-m:e-p270:32:32-p271:32:32-p272:64:64-i64:64-i128:128-f80:128-n8:16:32:64-S128"
target triple = "x86_64-pc-linux-gnu"

%"class.llvm::CombinerHelper" = type { ptr, ptr, ptr, ptr, ptr, i8, ptr, ptr, ptr }
%"class.llvm::DebugLoc" = type { %"class.llvm::TypedTrackingMDRef" }
%"class.llvm::TypedTrackingMDRef" = type { %"class.llvm::TrackingMDRef" }
%"class.llvm::TrackingMDRef" = type { ptr }
%"class.llvm::Register" = type { i32 }
%"class.llvm::MachineOperand" = type { i32, %union.anon.200, ptr, %"union.llvm::MachineOperand::ContentsUnion" }
%union.anon.200 = type { i32 }
%"union.llvm::MachineOperand::ContentsUnion" = type { %"class.llvm::ArrayRef.201" }
%"class.llvm::ArrayRef.201" = type { ptr, i64 }
%"class.llvm::MachineInstr" = type <{ %"class.llvm::ilist_node_with_parent", ptr, ptr, ptr, [3 x i8], %"class.llvm::ArrayRecycler<llvm::MachineOperand>::Capacity", i32, %"class.llvm::PointerSumType", %"class.llvm::DebugLoc", i32, i16, [2 x i8] }>
%"class.llvm::ilist_node_with_parent" = type { %"class.llvm::ilist_node" }
%"class.llvm::ilist_node" = type { %"class.llvm::ilist_node_impl.205" }
%"class.llvm::ilist_node_impl.205" = type { %"class.llvm::ilist_node_base.206" }
%"class.llvm::ilist_node_base.206" = type { %"class.llvm::ilist_detail::node_base_prevnext.207" }
%"class.llvm::ilist_detail::node_base_prevnext.207" = type { %"class.llvm::PointerIntPair.208", ptr }
%"class.llvm::PointerIntPair.208" = type { %"struct.llvm::detail::PunnedPointer.209" }
%"struct.llvm::detail::PunnedPointer.209" = type { [8 x i8] }
%"class.llvm::ArrayRecycler<llvm::MachineOperand>::Capacity" = type { i8 }
%"class.llvm::PointerSumType" = type { %"union.llvm::PointerSumType<llvm::MachineInstr::ExtraInfoInlineKinds, llvm::PointerSumTypeMember<0, llvm::MachineMemOperand *>, llvm::PointerSumTypeMember<1, llvm::MCSymbol *>, llvm::PointerSumTypeMember<2, llvm::MCSymbol *>, llvm::PointerSumTypeMember<3, llvm::MachineInstr::ExtraInfo *>>::StorageT" }
%"union.llvm::PointerSumType<llvm::MachineInstr::ExtraInfoInlineKinds, llvm::PointerSumTypeMember<0, llvm::MachineMemOperand *>, llvm::PointerSumTypeMember<1, llvm::MCSymbol *>, llvm::PointerSumTypeMember<2, llvm::MCSymbol *>, llvm::PointerSumTypeMember<3, llvm::MachineInstr::ExtraInfo *>>::StorageT" = type { i64 }
%"class.llvm::APFloat" = type { [8 x i8], %"union.llvm::APFloat::Storage" }
%"union.llvm::APFloat::Storage" = type { %"class.llvm::detail::DoubleAPFloat", [8 x i8] }
%"class.llvm::detail::DoubleAPFloat" = type { ptr, %"class.std::unique_ptr.429" }
%"class.std::unique_ptr.429" = type { %"struct.std::__uniq_ptr_data.430" }
%"struct.std::__uniq_ptr_data.430" = type { %"class.std::__uniq_ptr_impl.431" }
%"class.std::__uniq_ptr_impl.431" = type { %"class.std::tuple.432" }
%"class.std::tuple.432" = type { %"struct.std::_Tuple_impl.433" }
%"struct.std::_Tuple_impl.433" = type { %"struct.std::_Head_base.436" }
%"struct.std::_Head_base.436" = type { ptr }
%"class.llvm::ConstantFP" = type { %"class.llvm::ConstantData", %"class.llvm::APFloat" }
%"class.llvm::ConstantData" = type { %"class.llvm::Constant" }
%"class.llvm::Constant" = type { %"class.llvm::User" }
%"class.llvm::User" = type { %"class.llvm::Value" }
%"class.llvm::Value" = type { i8, i8, i16, i32, ptr, ptr }
%class.anon.828 = type { ptr, ptr, ptr, ptr }
%"class.llvm::detail::IEEEFloat" = type <{ ptr, %"union.llvm::detail::IEEEFloat::Significand", i32, i8, [3 x i8] }>
%"union.llvm::detail::IEEEFloat::Significand" = type { i64 }

; Function Attrs: mustprogress nounwind uwtable
define linkonce_odr hidden noundef nonnull align 8 dereferenceable(8) ptr @_ZNSt10_Head_baseILm0EPN4llvm7APFloatELb0EE7_M_headERKS3_(ptr noundef nonnull align 8 dereferenceable(8) %0) #1 comdat align 2 {
  %2 = alloca ptr, align 8
  store ptr %0, ptr %2, align 8
  %3 = load ptr, ptr %2, align 8
  %4 = getelementptr inbounds nuw %"struct.std::_Head_base.436", ptr %3, i32 0, i32 0
  ret ptr %4
}

; Function Attrs: mustprogress nounwind uwtable
define linkonce_odr hidden noundef nonnull align 8 dereferenceable(8) ptr @_ZNSt11_Tuple_implILm0EJPN4llvm7APFloatESt14default_deleteIA_S1_EEE7_M_headERKS6_(ptr noundef nonnull align 8 dereferenceable(8) %0) #1 comdat align 2 {
  %2 = alloca ptr, align 8
  store ptr %0, ptr %2, align 8
  %3 = load ptr, ptr %2, align 8
  %4 = call noundef nonnull align 8 dereferenceable(8) ptr @_ZNSt10_Head_baseILm0EPN4llvm7APFloatELb0EE7_M_headERKS3_(ptr noundef nonnull align 8 dereferenceable(8) %3) #2
  ret ptr %4
}

; Function Attrs: mustprogress nounwind uwtable
define linkonce_odr noundef nonnull align 8 dereferenceable(8) ptr @_ZSt12__get_helperILm0EPN4llvm7APFloatEJSt14default_deleteIA_S1_EEERKT0_RKSt11_Tuple_implIXT_EJS6_DpT1_EE(ptr noundef nonnull align 8 dereferenceable(8) %0) #1 comdat {
  %2 = alloca ptr, align 8
  store ptr %0, ptr %2, align 8
  %3 = load ptr, ptr %2, align 8
  %4 = call noundef nonnull align 8 dereferenceable(8) ptr @_ZNSt11_Tuple_implILm0EJPN4llvm7APFloatESt14default_deleteIA_S1_EEE7_M_headERKS6_(ptr noundef nonnull align 8 dereferenceable(8) %3) #2
  ret ptr %4
}

; Function Attrs: mustprogress nounwind uwtable
define linkonce_odr noundef nonnull align 8 dereferenceable(8) ptr @_ZSt3getILm0EJPN4llvm7APFloatESt14default_deleteIA_S1_EEERKNSt13tuple_elementIXT_ESt5tupleIJDpT0_EEE4typeERKSA_(ptr noundef nonnull align 8 dereferenceable(8) %0) #1 comdat {
  %2 = alloca ptr, align 8
  store ptr %0, ptr %2, align 8
  %3 = load ptr, ptr %2, align 8
  %4 = call noundef nonnull align 8 dereferenceable(8) ptr @_ZSt12__get_helperILm0EPN4llvm7APFloatEJSt14default_deleteIA_S1_EEERKT0_RKSt11_Tuple_implIXT_EJS6_DpT1_EE(ptr noundef nonnull align 8 dereferenceable(8) %3) #2
  ret ptr %4
}

; Function Attrs: mustprogress nounwind uwtable
define linkonce_odr hidden noundef ptr @_ZNKSt15__uniq_ptr_implIN4llvm7APFloatESt14default_deleteIA_S1_EE6_M_ptrEv(ptr noundef nonnull align 8 dereferenceable(8) %0) #1 comdat align 2 {
  %2 = alloca ptr, align 8
  store ptr %0, ptr %2, align 8
  %3 = load ptr, ptr %2, align 8
  %4 = getelementptr inbounds nuw %"class.std::__uniq_ptr_impl.431", ptr %3, i32 0, i32 0
  %5 = call noundef nonnull align 8 dereferenceable(8) ptr @_ZSt3getILm0EJPN4llvm7APFloatESt14default_deleteIA_S1_EEERKNSt13tuple_elementIXT_ESt5tupleIJDpT0_EEE4typeERKSA_(ptr noundef nonnull align 8 dereferenceable(8) %4) #2
  %6 = load ptr, ptr %5, align 8
  ret ptr %6
}

; Function Attrs: mustprogress nounwind uwtable
define linkonce_odr hidden noundef ptr @_ZNKSt10unique_ptrIA_N4llvm7APFloatESt14default_deleteIS2_EE3getEv(ptr noundef nonnull align 8 dereferenceable(8) %0) #1 comdat align 2 {
  %2 = alloca ptr, align 8
  store ptr %0, ptr %2, align 8
  %3 = load ptr, ptr %2, align 8
  %4 = getelementptr inbounds nuw %"class.std::unique_ptr.429", ptr %3, i32 0, i32 0
  %5 = call noundef ptr @_ZNKSt15__uniq_ptr_implIN4llvm7APFloatESt14default_deleteIA_S1_EE6_M_ptrEv(ptr noundef nonnull align 8 dereferenceable(8) %4) #2
  ret ptr %5
}

; Function Attrs: mustprogress nounwind uwtable
define linkonce_odr hidden noundef nonnull align 8 dereferenceable(32) ptr @_ZNKSt10unique_ptrIA_N4llvm7APFloatESt14default_deleteIS2_EEixEm(ptr noundef nonnull align 8 dereferenceable(8) %0, i64 noundef %1) #1 comdat align 2 {
  %3 = alloca ptr, align 8
  %4 = alloca i64, align 8
  store ptr %0, ptr %3, align 8
  store i64 %1, ptr %4, align 8
  %5 = load ptr, ptr %3, align 8
  br label %6

6:                                                ; preds = %2
  br label %7

7:                                                ; preds = %6
  %8 = call noundef ptr @_ZNKSt10unique_ptrIA_N4llvm7APFloatESt14default_deleteIS2_EE3getEv(ptr noundef nonnull align 8 dereferenceable(8) %5) #2
  %9 = load i64, ptr %4, align 8
  %10 = getelementptr inbounds %"class.llvm::APFloat", ptr %8, i64 %9
  ret ptr %10
}

; Function Attrs: mustprogress nounwind uwtable
define linkonce_odr hidden noundef nonnull align 8 dereferenceable(32) ptr @_ZNK4llvm6detail13DoubleAPFloat8getFirstEv(ptr noundef nonnull align 8 dereferenceable(16) %0) #1 comdat align 2 {
  %2 = alloca ptr, align 8
  store ptr %0, ptr %2, align 8
  %3 = load ptr, ptr %2, align 8
  %4 = getelementptr inbounds nuw %"class.llvm::detail::DoubleAPFloat", ptr %3, i32 0, i32 1
  %5 = call noundef nonnull align 8 dereferenceable(32) ptr @_ZNKSt10unique_ptrIA_N4llvm7APFloatESt14default_deleteIS2_EEixEm(ptr noundef nonnull align 8 dereferenceable(8) %4, i64 noundef 0)
  ret ptr %5
}

; Function Attrs: mustprogress nounwind uwtable
define linkonce_odr hidden noundef zeroext i1 @_ZN4llvm7APFloat10usesLayoutINS_6detail13DoubleAPFloatEEEbRKNS_12fltSemanticsE(ptr noundef nonnull align 1 %0) #1 comdat align 2 {
  %2 = alloca ptr, align 8
  store ptr %0, ptr %2, align 8
  %3 = load ptr, ptr %2, align 8
  %4 = call noundef nonnull align 1 ptr @_ZN4llvm11APFloatBase15PPCDoubleDoubleEv() #17
  %5 = icmp eq ptr %3, %4
  ret i1 %5
}

; Function Attrs: mustprogress nounwind uwtable
define linkonce_odr hidden noundef zeroext i1 @_ZN4llvm7APFloat10usesLayoutINS_6detail9IEEEFloatEEEbRKNS_12fltSemanticsE(ptr noundef nonnull align 1 %0) #1 comdat align 2 {
  %2 = alloca ptr, align 8
  store ptr %0, ptr %2, align 8
  %3 = load ptr, ptr %2, align 8
  %4 = call noundef nonnull align 1 ptr @_ZN4llvm11APFloatBase15PPCDoubleDoubleEv() #17
  %5 = icmp ne ptr %3, %4
  ret i1 %5
}

; Function Attrs: mustprogress nounwind uwtable
define linkonce_odr hidden noundef i32 @_ZNK4llvm6detail9IEEEFloat11getCategoryEv(ptr noundef nonnull align 8 dereferenceable(24) %0) #1 comdat align 2 {
  %2 = alloca ptr, align 8
  store ptr %0, ptr %2, align 8
  %3 = load ptr, ptr %2, align 8
  %4 = getelementptr inbounds nuw %"class.llvm::detail::IEEEFloat", ptr %3, i32 0, i32 3
  %5 = load i8, ptr %4, align 4
  %6 = and i8 %5, 7
  %7 = zext i8 %6 to i32
  ret i32 %7
}

; Function Attrs: mustprogress nounwind uwtable
define linkonce_odr hidden noundef nonnull align 8 dereferenceable(24) ptr @_ZNK4llvm7APFloat7getIEEEEv(ptr noundef nonnull align 8 dereferenceable(32) %0) #1 comdat align 2 {
  %2 = alloca ptr, align 8
  %3 = alloca ptr, align 8
  store ptr %0, ptr %3, align 8
  %4 = load ptr, ptr %3, align 8
  %5 = getelementptr inbounds nuw %"class.llvm::APFloat", ptr %4, i32 0, i32 1
  %6 = load ptr, ptr %5, align 8
  %7 = call noundef zeroext i1 @_ZN4llvm7APFloat10usesLayoutINS_6detail9IEEEFloatEEEbRKNS_12fltSemanticsE(ptr noundef nonnull align 1 %6)
  br i1 %7, label %8, label %10

8:                                                ; preds = %1
  %9 = getelementptr inbounds nuw %"class.llvm::APFloat", ptr %4, i32 0, i32 1
  store ptr %9, ptr %2, align 8
  br label %19

10:                                               ; preds = %1
  %11 = getelementptr inbounds nuw %"class.llvm::APFloat", ptr %4, i32 0, i32 1
  %12 = load ptr, ptr %11, align 8
  %13 = call noundef zeroext i1 @_ZN4llvm7APFloat10usesLayoutINS_6detail13DoubleAPFloatEEEbRKNS_12fltSemanticsE(ptr noundef nonnull align 1 %12)
  br i1 %13, label %14, label %18

14:                                               ; preds = %10
  %15 = getelementptr inbounds nuw %"class.llvm::APFloat", ptr %4, i32 0, i32 1
  %16 = call noundef nonnull align 8 dereferenceable(32) ptr @_ZNK4llvm6detail13DoubleAPFloat8getFirstEv(ptr noundef nonnull align 8 dereferenceable(16) %15)
  %17 = getelementptr inbounds nuw %"class.llvm::APFloat", ptr %16, i32 0, i32 1
  store ptr %17, ptr %2, align 8
  br label %19

18:                                               ; preds = %10
  unreachable

19:                                               ; preds = %14, %8
  %20 = load ptr, ptr %2, align 8
  ret ptr %20
}

; Function Attrs: mustprogress nounwind uwtable
define linkonce_odr hidden noundef i32 @_ZNK4llvm7APFloat11getCategoryEv(ptr noundef nonnull align 8 dereferenceable(32) %0) #1 comdat align 2 {
  %2 = alloca ptr, align 8
  store ptr %0, ptr %2, align 8
  %3 = load ptr, ptr %2, align 8
  %4 = call noundef nonnull align 8 dereferenceable(24) ptr @_ZNK4llvm7APFloat7getIEEEEv(ptr noundef nonnull align 8 dereferenceable(32) %3)
  %5 = call noundef i32 @_ZNK4llvm6detail9IEEEFloat11getCategoryEv(ptr noundef nonnull align 8 dereferenceable(24) %4)
  ret i32 %5
}

; Function Attrs: mustprogress nounwind uwtable
define linkonce_odr hidden void @_ZN4llvm8RegisterC2Ej(ptr noundef nonnull align 4 dereferenceable(4) %0, i32 noundef %1) unnamed_addr #1 comdat align 2 {
  %3 = alloca ptr, align 8
  %4 = alloca i32, align 4
  store ptr %0, ptr %3, align 8
  store i32 %1, ptr %4, align 4
  %5 = load ptr, ptr %3, align 8
  %6 = getelementptr inbounds nuw %"class.llvm::Register", ptr %5, i32 0, i32 0
  %7 = load i32, ptr %4, align 4
  store i32 %7, ptr %6, align 4
  ret void
}

; Function Attrs: mustprogress nounwind uwtable
define linkonce_odr hidden noundef zeroext i1 @_ZNK4llvm7APFloat5isNaNEv(ptr noundef nonnull align 8 dereferenceable(32) %0) #1 comdat align 2 {
  %2 = alloca ptr, align 8
  store ptr %0, ptr %2, align 8
  %3 = load ptr, ptr %2, align 8
  %4 = call noundef i32 @_ZNK4llvm7APFloat11getCategoryEv(ptr noundef nonnull align 8 dereferenceable(32) %3)
  %5 = icmp eq i32 %4, 1
  ret i1 %5
}

; Function Attrs: mustprogress nounwind uwtable
define linkonce_odr hidden noundef nonnull align 8 dereferenceable(32) ptr @_ZNK4llvm10ConstantFP11getValueAPFEv(ptr noundef nonnull align 8 dereferenceable(56) %0) #1 comdat align 2 {
  %2 = alloca ptr, align 8
  store ptr %0, ptr %2, align 8
  %3 = load ptr, ptr %2, align 8
  %4 = getelementptr inbounds nuw %"class.llvm::ConstantFP", ptr %3, i32 0, i32 1
  ret ptr %4
}

; Function Attrs: mustprogress nounwind uwtable
define linkonce_odr hidden i32 @_ZNK4llvm14MachineOperand6getRegEv(ptr noundef nonnull align 8 dereferenceable(32) %0) #1 comdat align 2 {
  %2 = alloca %"class.llvm::Register", align 4
  %3 = alloca ptr, align 8
  store ptr %0, ptr %3, align 8
  %4 = load ptr, ptr %3, align 8
  %5 = getelementptr inbounds nuw %"class.llvm::MachineOperand", ptr %4, i32 0, i32 1
  %6 = load i32, ptr %5, align 4
  call void @_ZN4llvm8RegisterC2Ej(ptr noundef nonnull align 4 dereferenceable(4) %2, i32 noundef %6)
  %7 = getelementptr inbounds nuw %"class.llvm::Register", ptr %2, i32 0, i32 0
  %8 = load i32, ptr %7, align 4
  ret i32 %8
}

; Function Attrs: mustprogress nounwind uwtable
define linkonce_odr hidden noundef nonnull align 8 dereferenceable(32) ptr @_ZN4llvm12MachineInstr10getOperandEj(ptr noundef nonnull align 8 dereferenceable(70) %0, i32 noundef %1) #1 comdat align 2 {
  %3 = alloca ptr, align 8
  %4 = alloca i32, align 4
  store ptr %0, ptr %3, align 8
  store i32 %1, ptr %4, align 4
  %5 = load ptr, ptr %3, align 8
  %6 = getelementptr inbounds nuw %"class.llvm::MachineInstr", ptr %5, i32 0, i32 3
  %7 = load ptr, ptr %6, align 8
  %8 = load i32, ptr %4, align 4
  %9 = zext i32 %8 to i64
  %10 = getelementptr inbounds %"class.llvm::MachineOperand", ptr %7, i64 %9
  ret ptr %10
}

; Function Attrs: mustprogress nounwind uwtable
define internal noundef zeroext i1 @"_ZZN4llvm14CombinerHelper22matchCombineFMinMaxNaNERNS_12MachineInstrERjENK3$_0clEj"(ptr noundef nonnull align 8 dereferenceable(32) %0, i32 noundef %1) #1 align 2 {
  %3 = alloca i1, align 1
  %4 = alloca ptr, align 8
  %5 = alloca i32, align 4
  %6 = alloca %"class.llvm::Register", align 4
  %7 = alloca ptr, align 8
  %8 = alloca %"class.llvm::Register", align 4
  store ptr %0, ptr %4, align 8
  store i32 %1, ptr %5, align 4
  %9 = load ptr, ptr %4, align 8
  %10 = getelementptr inbounds nuw %class.anon.828, ptr %9, i32 0, i32 1
  %11 = load ptr, ptr %10, align 8
  %12 = getelementptr inbounds nuw %class.anon.828, ptr %9, i32 0, i32 0
  %13 = load ptr, ptr %12, align 8
  %14 = load i32, ptr %5, align 4
  %15 = call noundef nonnull align 8 dereferenceable(32) ptr @_ZN4llvm12MachineInstr10getOperandEj(ptr noundef nonnull align 8 dereferenceable(70) %13, i32 noundef %14)
  %16 = call i32 @_ZNK4llvm14MachineOperand6getRegEv(ptr noundef nonnull align 8 dereferenceable(32) %15)
  %17 = getelementptr inbounds nuw %"class.llvm::Register", ptr %6, i32 0, i32 0
  store i32 %16, ptr %17, align 4
  call void @llvm.memcpy.p0.p0.i64(ptr align 4 %8, ptr align 4 %6, i64 4, i1 false)
  %18 = getelementptr inbounds nuw %"class.llvm::CombinerHelper", ptr %11, i32 0, i32 1
  %19 = load ptr, ptr %18, align 8
  %20 = getelementptr inbounds nuw %"class.llvm::Register", ptr %8, i32 0, i32 0
  %21 = load i32, ptr %20, align 4
  %22 = call noundef ptr @_ZN4llvm20getConstantFPVRegValENS_8RegisterERKNS_19MachineRegisterInfoE(i32 %21, ptr noundef nonnull align 8 dereferenceable(512) %19)
  store ptr %22, ptr %7, align 8
  %23 = load ptr, ptr %7, align 8
  %24 = icmp ne ptr %23, null
  br i1 %24, label %25, label %29

25:                                               ; preds = %2
  %26 = load ptr, ptr %7, align 8
  %27 = call noundef nonnull align 8 dereferenceable(32) ptr @_ZNK4llvm10ConstantFP11getValueAPFEv(ptr noundef nonnull align 8 dereferenceable(56) %26)
  %28 = call noundef zeroext i1 @_ZNK4llvm7APFloat5isNaNEv(ptr noundef nonnull align 8 dereferenceable(32) %27)
  br i1 %28, label %30, label %29

29:                                               ; preds = %25, %2
  store i1 false, ptr %3, align 1
  br label %45

30:                                               ; preds = %25
  %31 = getelementptr inbounds nuw %class.anon.828, ptr %9, i32 0, i32 3
  %32 = load ptr, ptr %31, align 8
  %33 = load i8, ptr %32, align 1
  %34 = trunc i8 %33 to i1
  br i1 %34, label %35, label %37

35:                                               ; preds = %30
  %36 = load i32, ptr %5, align 4
  br label %41

37:                                               ; preds = %30
  %38 = load i32, ptr %5, align 4
  %39 = icmp eq i32 %38, 1
  %40 = select i1 %39, i32 2, i32 1
  br label %41

41:                                               ; preds = %37, %35
  %42 = phi i32 [ %36, %35 ], [ %40, %37 ]
  %43 = getelementptr inbounds nuw %class.anon.828, ptr %9, i32 0, i32 2
  %44 = load ptr, ptr %43, align 8
  store i32 %42, ptr %44, align 4
  store i1 true, ptr %3, align 1
  br label %45

45:                                               ; preds = %41, %29
  %46 = load i1, ptr %3, align 1
  ret i1 %46
}

; Function Attrs: mustprogress nounwind uwtable
define linkonce_odr hidden noundef i32 @_ZNK4llvm12MachineInstr9getOpcodeEv(ptr noundef nonnull align 8 dereferenceable(70) %0) #1 comdat align 2 {
  %2 = alloca ptr, align 8
  store ptr %0, ptr %2, align 8
  %3 = load ptr, ptr %2, align 8
  %4 = getelementptr inbounds nuw %"class.llvm::MachineInstr", ptr %3, i32 0, i32 10
  %5 = load i16, ptr %4, align 4
  %6 = zext i16 %5 to i32
  ret i32 %6
}

; Function Attrs: mustprogress nounwind uwtable
define dso_local noundef zeroext i1 @_ZN4llvm14CombinerHelper22matchCombineFMinMaxNaNERNS_12MachineInstrERj(ptr noundef nonnull align 8 dereferenceable(72) %0, ptr noundef nonnull align 8 dereferenceable(70) %1, ptr noundef nonnull align 4 dereferenceable(4) %2) #1 align 2 {
  %4 = alloca i1, align 1
  %5 = alloca ptr, align 8
  %6 = alloca ptr, align 8
  %7 = alloca ptr, align 8
  %8 = alloca i8, align 1
  %9 = alloca %class.anon.828, align 8
  store ptr %0, ptr %5, align 8
  store ptr %1, ptr %6, align 8
  store ptr %2, ptr %7, align 8
  %10 = load ptr, ptr %5, align 8
  %11 = load ptr, ptr %6, align 8
  %12 = call noundef i32 @_ZNK4llvm12MachineInstr9getOpcodeEv(ptr noundef nonnull align 8 dereferenceable(70) %11)
  switch i32 %12, label %13 [
    i32 201, label %14
    i32 202, label %14
    i32 205, label %15
    i32 206, label %15
  ]

13:                                               ; preds = %3
  store i1 false, ptr %4, align 1
  br label %28

14:                                               ; preds = %3, %3
  store i8 0, ptr %8, align 1
  br label %16

15:                                               ; preds = %3, %3
  store i8 1, ptr %8, align 1
  br label %16

16:                                               ; preds = %15, %14
  %17 = getelementptr inbounds nuw %class.anon.828, ptr %9, i32 0, i32 0
  %18 = load ptr, ptr %6, align 8
  store ptr %18, ptr %17, align 8
  %19 = getelementptr inbounds nuw %class.anon.828, ptr %9, i32 0, i32 1
  store ptr %10, ptr %19, align 8
  %20 = getelementptr inbounds nuw %class.anon.828, ptr %9, i32 0, i32 2
  %21 = load ptr, ptr %7, align 8
  store ptr %21, ptr %20, align 8
  %22 = getelementptr inbounds nuw %class.anon.828, ptr %9, i32 0, i32 3
  store ptr %8, ptr %22, align 8
  %23 = call noundef zeroext i1 @"_ZZN4llvm14CombinerHelper22matchCombineFMinMaxNaNERNS_12MachineInstrERjENK3$_0clEj"(ptr noundef nonnull align 8 dereferenceable(32) %9, i32 noundef 1)
  br i1 %23, label %26, label %24

24:                                               ; preds = %16
  %25 = call noundef zeroext i1 @"_ZZN4llvm14CombinerHelper22matchCombineFMinMaxNaNERNS_12MachineInstrERjENK3$_0clEj"(ptr noundef nonnull align 8 dereferenceable(32) %9, i32 noundef 2)
  br label %26

26:                                               ; preds = %24, %16
  %27 = phi i1 [ true, %16 ], [ %25, %24 ]
  store i1 %27, ptr %4, align 1
  br label %28

28:                                               ; preds = %26, %13
  %29 = load i1, ptr %4, align 1
  ret i1 %29
}