; Function Attrs: mustprogress nounwind uwtable
define dso_local noundef zeroext i1 @_ZN4llvm14CombinerHelper22matchCombineFMinMaxNaNERNS_12MachineInstrERj(ptr nocapture noundef nonnull readonly align 8 dereferenceable(72) %0, ptr nocapture noundef nonnull readonly align 8 dereferenceable(70) %1, ptr nocapture noundef nonnull writeonly align 4 dereferenceable(4) %2) local_unnamed_addr #0 align 2 {
  %4 = getelementptr inbounds nuw i8, ptr %1, i64 68
  %5 = load i16, ptr %4, align 4
  %switch.tableidx = add i16 %5, -201
  %6 = icmp ult i16 %switch.tableidx, 6
  br i1 %6, label %switch.hole_check, label %"_ZZN4llvm14CombinerHelper22matchCombineFMinMaxNaNERNS_12MachineInstrERjENK3$_0clEj.exit9"

switch.hole_check:                                ; preds = %3
  %switch.maskindex = trunc nuw i16 %switch.tableidx to i8
  %switch.shifted = lshr i8 51, %switch.maskindex
  %switch.lobit = trunc i8 %switch.shifted to i1
  br i1 %switch.lobit, label %switch.lookup, label %"_ZZN4llvm14CombinerHelper22matchCombineFMinMaxNaNERNS_12MachineInstrERjENK3$_0clEj.exit9"

switch.lookup:                                    ; preds = %switch.hole_check
  %switch.cast = trunc nuw i16 %switch.tableidx to i6
  %switch.downshift = lshr i6 -16, %switch.cast
  %switch.masked = trunc i6 %switch.downshift to i1
  %7 = getelementptr inbounds nuw i8, ptr %1, i64 32
  %8 = load ptr, ptr %7, align 8
  %9 = getelementptr inbounds i8, ptr %8, i64 36
  %10 = load i32, ptr %9, align 4
  %11 = getelementptr inbounds nuw i8, ptr %0, i64 8
  %12 = load ptr, ptr %11, align 8
  %13 = tail call noundef ptr @_ZN4llvm20getConstantFPVRegValENS_8RegisterERKNS_19MachineRegisterInfoE(i32 %10, ptr noundef nonnull align 8 dereferenceable(512) %12) #27
  %.not.i = icmp eq ptr %13, null
  br i1 %.not.i, label %26, label %14

14:                                               ; preds = %switch.lookup
  %15 = getelementptr inbounds i8, ptr %13, i64 32
  %16 = load ptr, ptr %15, align 8
  %17 = tail call noundef nonnull align 1 ptr @_ZN4llvm11APFloatBase15PPCDoubleDoubleEv() #32
  %.not.i.i.i.i = icmp eq ptr %16, %17
  %18 = getelementptr inbounds i8, ptr %13, i64 40
  %19 = load ptr, ptr %18, align 8
  %20 = getelementptr inbounds nuw i8, ptr %19, i64 8
  %.0.i.i.i.i = select i1 %.not.i.i.i.i, ptr %20, ptr %15
  %21 = getelementptr inbounds nuw i8, ptr %.0.i.i.i.i, i64 20
  %22 = load i8, ptr %21, align 4
  %23 = and i8 %22, 7
  %24 = icmp eq i8 %23, 1
  br i1 %24, label %"_ZZN4llvm14CombinerHelper22matchCombineFMinMaxNaNERNS_12MachineInstrERjENK3$_0clEj.exit", label %26

"_ZZN4llvm14CombinerHelper22matchCombineFMinMaxNaNERNS_12MachineInstrERjENK3$_0clEj.exit": ; preds = %14
  %25 = select i1 %switch.masked, i32 1, i32 2
  br label %"_ZZN4llvm14CombinerHelper22matchCombineFMinMaxNaNERNS_12MachineInstrERjENK3$_0clEj.exit9.sink.split"

26:                                               ; preds = %14, %switch.lookup
  %27 = load ptr, ptr %7, align 8
  %28 = getelementptr inbounds i8, ptr %27, i64 68
  %29 = load i32, ptr %28, align 4
  %30 = load ptr, ptr %11, align 8
  %31 = tail call noundef ptr @_ZN4llvm20getConstantFPVRegValENS_8RegisterERKNS_19MachineRegisterInfoE(i32 %29, ptr noundef nonnull align 8 dereferenceable(512) %30) #27
  %.not.i5 = icmp eq ptr %31, null
  br i1 %.not.i5, label %"_ZZN4llvm14CombinerHelper22matchCombineFMinMaxNaNERNS_12MachineInstrERjENK3$_0clEj.exit9", label %32

32:                                               ; preds = %26
  %33 = getelementptr inbounds i8, ptr %31, i64 32
  %34 = load ptr, ptr %33, align 8
  %35 = tail call noundef nonnull align 1 ptr @_ZN4llvm11APFloatBase15PPCDoubleDoubleEv() #32
  %.not.i.i.i.i6 = icmp eq ptr %34, %35
  %36 = getelementptr inbounds i8, ptr %31, i64 40
  %37 = load ptr, ptr %36, align 8
  %38 = getelementptr inbounds nuw i8, ptr %37, i64 8
  %.0.i.i.i.i7 = select i1 %.not.i.i.i.i6, ptr %38, ptr %33
  %39 = getelementptr inbounds nuw i8, ptr %.0.i.i.i.i7, i64 20
  %40 = load i8, ptr %39, align 4
  %41 = and i8 %40, 7
  %42 = icmp eq i8 %41, 1
  br i1 %42, label %43, label %"_ZZN4llvm14CombinerHelper22matchCombineFMinMaxNaNERNS_12MachineInstrERjENK3$_0clEj.exit9"

43:                                               ; preds = %32
  %44 = select i1 %switch.masked, i32 2, i32 1
  br label %"_ZZN4llvm14CombinerHelper22matchCombineFMinMaxNaNERNS_12MachineInstrERjENK3$_0clEj.exit9.sink.split"

"_ZZN4llvm14CombinerHelper22matchCombineFMinMaxNaNERNS_12MachineInstrERjENK3$_0clEj.exit9.sink.split": ; preds = %"_ZZN4llvm14CombinerHelper22matchCombineFMinMaxNaNERNS_12MachineInstrERjENK3$_0clEj.exit", %43
  %.sink = phi i32 [ %44, %43 ], [ %25, %"_ZZN4llvm14CombinerHelper22matchCombineFMinMaxNaNERNS_12MachineInstrERjENK3$_0clEj.exit" ]
  store i32 %.sink, ptr %2, align 4
  br label %"_ZZN4llvm14CombinerHelper22matchCombineFMinMaxNaNERNS_12MachineInstrERjENK3$_0clEj.exit9"

"_ZZN4llvm14CombinerHelper22matchCombineFMinMaxNaNERNS_12MachineInstrERjENK3$_0clEj.exit9": ; preds = %switch.hole_check, %3, %"_ZZN4llvm14CombinerHelper22matchCombineFMinMaxNaNERNS_12MachineInstrERjENK3$_0clEj.exit9.sink.split", %32, %26
  %.0 = phi i1 [ false, %3 ], [ false, %32 ], [ false, %26 ], [ true, %"_ZZN4llvm14CombinerHelper22matchCombineFMinMaxNaNERNS_12MachineInstrERjENK3$_0clEj.exit9.sink.split" ], [ false, %switch.hole_check ]
  ret i1 %.0
}